; Function Attrs: nounwind uwtable
define ptr @l_Int_Linear_Expr_norm___boxed(ptr noundef %0) local_unnamed_addr #1 {
  %2 = load ptr, ptr @l_Int_Linear_Poly_denote_x27_go___closed__1, align 8, !tbaa !11
  %3 = load ptr, ptr @l_Int_Linear_Expr_toPoly_x27___closed__1, align 8, !tbaa !11
  %4 = tail call ptr @l_Int_Linear_Expr_toPoly_x27_go(ptr noundef %2, ptr noundef %0, ptr noundef %3)
  %5 = tail call ptr @l_Int_Linear_Poly_norm(ptr noundef %4)
  %6 = ptrtoint ptr %0 to i64
  %7 = and i64 %6, 1
  %.not = icmp eq i64 %7, 0
  br i1 %.not, label %8, label %lean_dec.exit

8:                                                ; preds = %1
  %9 = load i32, ptr %0, align 4, !tbaa !6
  %10 = icmp sgt i32 %9, 1
  br i1 %10, label %11, label %13, !prof !5

11:                                               ; preds = %8
  %12 = add nsw i32 %9, -1
  store i32 %12, ptr %0, align 4, !tbaa !6
  br label %lean_dec.exit

13:                                               ; preds = %8
  %.not.i = icmp eq i32 %9, 0
  br i1 %.not.i, label %lean_dec.exit, label %14

14:                                               ; preds = %13
  tail call void @lean_dec_ref_cold(ptr noundef nonnull %0) #5
  br label %lean_dec.exit

lean_dec.exit:                                    ; preds = %14, %13, %11, %1
  ret ptr %5
}